target datalayout = "e-m:e-p270:32:32-p271:32:32-p272:64:64-i64:64-i128:128-f80:128-n8:16:32:64-S128"
target triple = "x86_64-pc-linux-gnu"

%class.PtrQueueSet = type { ptr, ptr }
%class.G1ParScanThreadStateSet = type { ptr, ptr, %class.G1RedirtyCardsQueueSet, %class.PreservedMarksSet, ptr, ptr, ptr, i32, i8, ptr }
%class.G1RedirtyCardsQueueSet = type { %class.PtrQueueSet, [128 x i8], %class.LockFreeStack, [120 x i8], i64, [120 x i8], ptr }
%class.LockFreeStack = type { ptr }
%class.PreservedMarksSet = type { i8, i32, ptr }

; Function Attrs: mustprogress nounwind uwtable
define linkonce_odr hidden void @_ZN17PreservedMarksSetD2Ev(ptr noundef nonnull align 8 dereferenceable(16) %0) unnamed_addr #1 comdat align 2 {
  %2 = alloca ptr, align 8
  store ptr %0, ptr %2, align 8
  ret void
}

; Function Attrs: mustprogress nounwind uwtable
define hidden void @_ZN23G1ParScanThreadStateSetD2Ev(ptr noundef nonnull align 8 dereferenceable(480) %0) unnamed_addr #1 align 2 {
  %2 = alloca ptr, align 8
  store ptr %0, ptr %2, align 8
  %3 = load ptr, ptr %2, align 8
  %4 = getelementptr inbounds %class.G1ParScanThreadStateSet, ptr %3, i32 0, i32 4
  %5 = load ptr, ptr %4, align 8
  call void @_Z8FreeHeapPv(ptr noundef %5)
  %6 = getelementptr inbounds %class.G1ParScanThreadStateSet, ptr %3, i32 0, i32 6
  %7 = load ptr, ptr %6, align 8
  call void @_Z8FreeHeapPv(ptr noundef %7)
  %8 = getelementptr inbounds %class.G1ParScanThreadStateSet, ptr %3, i32 0, i32 5
  %9 = load ptr, ptr %8, align 8
  call void @_Z8FreeHeapPv(ptr noundef %9)
  %10 = getelementptr inbounds %class.G1ParScanThreadStateSet, ptr %3, i32 0, i32 3
  call void @_ZN17PreservedMarksSet7reclaimEv(ptr noundef nonnull align 8 dereferenceable(16) %10)
  %11 = getelementptr inbounds %class.G1ParScanThreadStateSet, ptr %3, i32 0, i32 3
  call void @_ZN17PreservedMarksSetD2Ev(ptr noundef nonnull align 8 dereferenceable(16) %11) #10
  %12 = getelementptr inbounds %class.G1ParScanThreadStateSet, ptr %3, i32 0, i32 2
  call void @_ZN22G1RedirtyCardsQueueSetD1Ev(ptr noundef nonnull align 8 dereferenceable(408) %12) #10
  ret void
}