; Function Attrs: mustprogress nounwind uwtable
define hidden void @_ZN23G1ParScanThreadStateSetD2Ev(ptr noundef nonnull align 8 dereferenceable(480) %0) unnamed_addr #0 align 2 {
  %2 = getelementptr inbounds i8, ptr %0, i64 440
  %3 = load ptr, ptr %2, align 8
  tail call void @_Z8FreeHeapPv(ptr noundef %3) #13
  %4 = getelementptr inbounds i8, ptr %0, i64 456
  %5 = load ptr, ptr %4, align 8
  tail call void @_Z8FreeHeapPv(ptr noundef %5) #13
  %6 = getelementptr inbounds i8, ptr %0, i64 448
  %7 = load ptr, ptr %6, align 8
  tail call void @_Z8FreeHeapPv(ptr noundef %7) #13
  %8 = getelementptr inbounds i8, ptr %0, i64 424
  tail call void @_ZN17PreservedMarksSet7reclaimEv(ptr noundef nonnull align 8 dereferenceable(16) %8) #13
  %9 = getelementptr inbounds i8, ptr %0, i64 16
  tail call void @_ZN22G1RedirtyCardsQueueSetD1Ev(ptr noundef nonnull align 8 dereferenceable(408) %9) #13
  ret void
}